target datalayout = "e-m:e-p270:32:32-p271:32:32-p272:64:64-i64:64-i128:128-f80:128-n8:16:32:64-S128"
target triple = "x86_64-pc-linux-gnu"

@.str.4 = private unnamed_addr constant [8 x i8] c"%s/src/\00", align 1
@.str.5 = private unnamed_addr constant [12 x i8] c"%s/tinympc/\00", align 1

; Function Attrs: mustprogress uwtable
define i32 @codegen_create_directories(ptr noundef %0, i32 noundef %1) #6 {
  %3 = alloca ptr, align 8
  %4 = alloca i32, align 4
  %5 = alloca [2048 x i8], align 16
  %6 = alloca [2048 x i8], align 16
  store ptr %0, ptr %3, align 8, !tbaa !15
  store i32 %1, ptr %4, align 4, !tbaa !17
  %7 = load ptr, ptr %3, align 8, !tbaa !15
  %8 = load i32, ptr %4, align 4, !tbaa !17
  call void @_ZL16create_directoryPKci(ptr noundef %7, i32 noundef %8)
  call void @llvm.lifetime.start.p0(i64 2048, ptr %5) #3
  %9 = getelementptr inbounds [2048 x i8], ptr %5, i64 0, i64 0
  %10 = load ptr, ptr %3, align 8, !tbaa !15
  %11 = call i32 (ptr, ptr, ...) @sprintf(ptr noundef %9, ptr noundef @.str.4, ptr noundef %10) #3
  %12 = getelementptr inbounds [2048 x i8], ptr %5, i64 0, i64 0
  %13 = load i32, ptr %4, align 4, !tbaa !17
  call void @_ZL16create_directoryPKci(ptr noundef %12, i32 noundef %13)
  call void @llvm.lifetime.start.p0(i64 2048, ptr %6) #3
  %14 = getelementptr inbounds [2048 x i8], ptr %6, i64 0, i64 0
  %15 = load ptr, ptr %3, align 8, !tbaa !15
  %16 = call i32 (ptr, ptr, ...) @sprintf(ptr noundef %14, ptr noundef @.str.5, ptr noundef %15) #3
  %17 = getelementptr inbounds [2048 x i8], ptr %6, i64 0, i64 0
  %18 = load i32, ptr %4, align 4, !tbaa !17
  call void @_ZL16create_directoryPKci(ptr noundef %17, i32 noundef %18)
  call void @llvm.lifetime.end.p0(i64 2048, ptr %6) #3
  call void @llvm.lifetime.end.p0(i64 2048, ptr %5) #3
  ret i32 0
}