; Function Attrs: mustprogress uwtable
define noundef i32 @codegen_create_directories(ptr noundef %0, i32 noundef %1) local_unnamed_addr #4 {
  %3 = alloca [2048 x i8], align 16
  %4 = alloca [2048 x i8], align 16
  tail call fastcc void @_ZL16create_directoryPKci(ptr noundef %0, i32 noundef %1)
  call void @llvm.lifetime.start.p0(i64 2048, ptr nonnull %3) #21
  %5 = call i32 (ptr, ptr, ...) @sprintf(ptr noundef nonnull dereferenceable(1) %3, ptr noundef nonnull dereferenceable(1) @.str.4, ptr noundef %0) #21
  call fastcc void @_ZL16create_directoryPKci(ptr noundef nonnull %3, i32 noundef %1)
  call void @llvm.lifetime.start.p0(i64 2048, ptr nonnull %4) #21
  %6 = call i32 (ptr, ptr, ...) @sprintf(ptr noundef nonnull dereferenceable(1) %4, ptr noundef nonnull dereferenceable(1) @.str.5, ptr noundef %0) #21
  call fastcc void @_ZL16create_directoryPKci(ptr noundef nonnull %4, i32 noundef %1)
  call void @llvm.lifetime.end.p0(i64 2048, ptr nonnull %4) #21
  call void @llvm.lifetime.end.p0(i64 2048, ptr nonnull %3) #21
  ret i32 0
}